Certificate:
    Data:
        Version: 3 (0x2)
        Serial Number: 1 (0x1)
    Signature Algorithm: sha256WithRSAEncryption
        Issuer: C=US, ST=Washington, L=Seattle, O=Example.com, OU=Licensing, CN=example.com/emailAddress=licensing@example.com
        Validity
            Not Before: May 15 21:00:38 2015 GMT
            Not After : May 12 21:00:38 2025 GMT
        Subject: C=US, ST=Washington, O=Example.com, OU=Production, CN=localhost/emailAddress=production@example.com
        Subject Public Key Info:
            Public Key Algorithm: rsaEncryption
                Public-Key: (2048 bit)
                Modulus:
                    00:9c:46:49:cb:be:08:5f:d6:52:ba:a9:d5:00:99:
                    95:4a:30:be:7e:c2:0b:de:33:c6:62:f4:a7:10:d7:
                    42:1d:75:03:23:1d:27:db:b1:8f:cd:29:fe:ad:1e:
                    89:f4:20:45:34:d8:ba:06:f9:d9:66:9e:56:5f:87:
                    48:63:12:52:36:0e:f6:e0:ca:85:eb:02:82:48:4b:
                    3e:29:d9:76:e7:6f:b1:34:22:8f:3b:d6:e7:88:16:
                    30:93:14:60:48:05:1f:9b:6b:a8:58:bf:1f:c7:8f:
                    0c:8b:d3:a4:22:15:85:c7:f7:50:c3:06:59:d8:f3:
                    4d:36:31:08:e2:e4:27:83:44:2e:4d:71:c7:db:a5:
                    cf:72:e0:13:ef:1c:f9:37:09:7c:7c:39:fb:d1:ba:
                    e8:a0:72:65:6f:47:fd:aa:ef:4e:f4:c8:3b:18:60:
                    56:33:ad:c5:f2:d4:4d:49:3d:c8:54:84:5e:8b:0c:
                    9c:96:9d:86:12:69:5a:99:db:bd:6e:6b:ee:4f:4f:
                    4c:53:67:b2:e4:87:2b:28:4d:e0:8e:0a:48:f1:e7:
                    8e:f8:46:f4:f5:4c:c8:b3:89:7e:1a:a9:24:94:1d:
                    06:5a:34:43:ec:f3:70:12:d2:09:df:d5:46:45:16:
                    db:06:66:4d:3d:3a:cd:f5:a6:ff:d4:90:88:10:67:
                    11:51
                Exponent: 65537 (0x10001)
        X509v3 extensions:
            X509v3 Basic Constraints: 
                CA:FALSE
            Netscape Cert Type: 
                SSL Server
            Netscape Comment: 
                OpenSSL Generated Server Certificate
            X509v3 Subject Key Identifier: 
                8E:9E:13:48:4A:13:CE:98:1F:22:73:EB:48:67:3E:6A:15:F5:4B:25
            X509v3 Authority Key Identifier: 
                keyid:B8:F7:0F:30:EC:A9:38:18:62:AE:BA:DE:8C:66:62:A6:1B:FF:83:DF
                DirName:/C=US/ST=Washington/L=Seattle/O=Example.com/OU=Licensing/CN=example.com/emailAddress=licensing@example.com
                serial:E2:3B:18:82:30:BB:75:EC

            X509v3 Extended Key Usage: 
                TLS Web Server Authentication
            X509v3 Key Usage: 
                Digital Signature, Key Encipherment
    Signature Algorithm: sha256WithRSAEncryption
         72:0f:21:38:fa:9b:07:4a:d1:66:3f:97:8e:38:51:d3:01:1b:
         16:9e:83:d6:f2:32:f3:e9:d3:da:90:81:82:ea:97:d2:1e:4c:
         ce:8a:ad:ea:77:50:1e:a9:9a:09:0b:ba:ad:60:d5:81:68:4f:
         18:14:a9:8f:cb:18:ad:fc:c7:8e:7e:c5:eb:67:f1:76:45:fd:
         d6:1c:61:c7:33:b3:de:78:d6:27:46:8b:67:dd:4b:63:5a:de:
         9b:4d:75:8e:4b:96:6a:75:90:88:4c:15:5f:45:0d:f8:5a:1b:
         0d:55:80:39:ba:d0:d3:e8:4b:d9:a3:1f:6c:84:b6:ac:14:52:
         aa:79:d5:25:f6:62:00:c5:55:f9:35:1a:99:13:ff:80:4f:83:
         05:77:8a:75:c0:89:18:4d:45:5b:40:03:86:9b:fd:d4:ac:7e:
         ec:4d:16:3c:c4:71:54:ec:6a:9c:e6:72:e3:f3:f0:64:33:eb:
         38:86:ab:68:e8:56:ae:36:48:2e:89:11:2f:08:d6:41:8b:79:
         94:28:e6:d0:4e:b4:34:ad:7c:b8:8c:67:13:87:ad:e8:5f:1c:
         d6:0f:5c:15:0e:e1:c4:a0:22:d5:1c:98:2f:6b:57:bf:db:77:
         f6:80:d2:72:8b:a8:6f:85:15:5e:a6:55:e4:41:31:2a:c7:68:
         55:79:4b:c6
-----BEGIN CERTIFICATE-----
MIIFCzCCA/OgAwIBAgIBATANBgkqhkiG9w0BAQsFADCBmjELMAkGA1UEBhMCVVMx
EzARBgNVBAgMCldhc2hpbmd0b24xEDAOBgNVBAcMB1NlYXR0bGUxFDASBgNVBAoM
C0V4YW1wbGUuY29tMRIwEAYDVQQLDAlMaWNlbnNpbmcxFDASBgNVBAMMC2V4YW1w
bGUuY29tMSQwIgYJKoZIhvcNAQkBFhVsaWNlbnNpbmdAZXhhbXBsZS5jb20wHhcN
MTUwNTE1MjEwMDM4WhcNMjUwNTEyMjEwMDM4WjCBiDELMAkGA1UEBhMCVVMxEzAR
BgNVBAgMCldhc2hpbmd0b24xFDASBgNVBAoMC0V4YW1wbGUuY29tMRMwEQYDVQQL
DApQcm9kdWN0aW9uMRIwEAYDVQQDDAlsb2NhbGhvc3QxJTAjBgkqhkiG9w0BCQEW
FnByb2R1Y3Rpb25AZXhhbXBsZS5jb20wggEiMA0GCSqGSIb3DQEBAQUAA4IBDwAw
ggEKAoIBAQCcRknLvghf1lK6qdUAmZVKML5+wgveM8Zi9KcQ10IddQMjHSfbsY/N
Kf6tHon0IEU02LoG+dlmnlZfh0hjElI2DvbgyoXrAoJISz4p2Xbnb7E0Io871ueI
FjCTFGBIBR+ba6hYvx/HjwyL06QiFYXH91DDBlnY8002MQji5CeDRC5Nccfbpc9y
4BPvHPk3CXx8OfvRuuigcmVvR/2q7070yDsYYFYzrcXy1E1JPchUhF6LDJyWnYYS
aVqZ271ua+5PT0xTZ7LkhysoTeCOCkjx5474RvT1TMiziX4aqSSUHQZaNEPs83AS
0gnf1UZFFtsGZk09Os31pv/UkIgQZxFRAgMBAAGjggFqMIIBZjAJBgNVHRMEAjAA
MBEGCWCGSAGG+EIBAQQEAwIGQDAzBglghkgBhvhCAQ0EJhYkT3BlblNTTCBHZW5l
cmF0ZWQgU2VydmVyIENlcnRpZmljYXRlMB0GA1UdDgQWBBSOnhNIShPOmB8ic+tI
Zz5qFfVLJTCBzwYDVR0jBIHHMIHEgBS49w8w7Kk4GGKuut6MZmKmG/+D36GBoKSB
nTCBmjELMAkGA1UEBhMCVVMxEzARBgNVBAgMCldhc2hpbmd0b24xEDAOBgNVBAcM
B1NlYXR0bGUxFDASBgNVBAoMC0V4YW1wbGUuY29tMRIwEAYDVQQLDAlMaWNlbnNp
bmcxFDASBgNVBAMMC2V4YW1wbGUuY29tMSQwIgYJKoZIhvcNAQkBFhVsaWNlbnNp
bmdAZXhhbXBsZS5jb22CCQDiOxiCMLt17DATBgNVHSUEDDAKBggrBgEFBQcDATAL
BgNVHQ8EBAMCBaAwDQYJKoZIhvcNAQELBQADggEBAHIPITj6mwdK0WY/l444UdMB
Gxaeg9byMvPp09qQgYLql9IeTM6Krep3UB6pmgkLuq1g1YFoTxgUqY/LGK38x45+
xetn8XZF/dYcYcczs9541idGi2fdS2Na3ptNdY5Llmp1kIhMFV9FDfhaGw1VgDm6
0NPoS9mjH2yEtqwUUqp51SX2YgDFVfk1GpkT/4BPgwV3inXAiRhNRVtAA4ab/dSs
fuxNFjzEcVTsapzmcuPz8GQz6ziGq2joVq42SC6JES8I1kGLeZQo5tBOtDStfLiM
ZxOHrehfHNYPXBUO4cSgItUcmC9rV7/bd/aA0nKLqG+FFV6mVeRBMSrHaFV5S8Y=
-----END CERTIFICATE-----
