Certificate:
    Data:
        Version: 3 (0x2)
        Serial Number: 2 (0x2)
    Signature Algorithm: sha256WithRSAEncryption
        Issuer: C=US, ST=Washington, L=Seattle, O=Example.com, OU=Licensing, CN=example.com/emailAddress=licensing@example.com
        Validity
            Not Before: May 15 21:01:37 2015 GMT
            Not After : May 12 21:01:37 2025 GMT
        Subject: C=US, ST=Washington, O=Example.com, OU=Production, CN=localhost/emailAddress=production@example.com
        Subject Public Key Info:
            Public Key Algorithm: rsaEncryption
                Public-Key: (2048 bit)
                Modulus:
                    00:d6:f0:0e:05:fd:2c:0e:22:86:05:41:3d:2e:5e:
                    be:3d:d1:00:58:89:fd:91:0e:e2:0a:8c:47:14:b0:
                    48:6a:cf:4f:4a:2e:e3:75:e4:5c:8a:18:2f:1a:41:
                    96:61:74:a5:cc:90:05:85:2c:65:a3:7a:c6:5f:ce:
                    23:66:d5:50:01:33:88:dc:1b:da:24:9e:b8:49:56:
                    b6:5c:f2:db:5d:26:ee:4c:d2:d9:02:7f:37:fe:84:
                    e2:52:49:8c:27:2b:f7:75:f0:62:8b:dc:8f:5e:66:
                    62:1b:d5:bf:73:13:da:0e:b7:82:59:aa:70:9c:b3:
                    87:f3:2b:a7:fe:b2:5b:87:15:be:1e:6a:05:8e:3a:
                    3e:aa:0c:63:ec:8c:a5:85:c7:3c:dc:35:1e:d6:e9:
                    08:85:aa:9b:cb:a2:bd:6f:13:25:1b:b3:6c:f8:f8:
                    79:bf:54:70:09:e2:70:23:d4:71:cb:cf:04:68:be:
                    28:7c:f2:50:c8:cc:1d:38:80:4d:bb:7c:4b:71:c2:
                    67:8c:57:0b:8c:9e:d0:4d:25:f0:76:8f:b8:1f:18:
                    ce:96:00:ec:cc:09:83:ba:39:3b:10:de:89:aa:08:
                    2e:69:e4:16:0a:66:1f:e4:07:f9:ee:a9:71:7a:91:
                    5e:cd:bd:f1:2b:e8:27:28:99:cb:23:c5:24:ec:71:
                    21:c5
                Exponent: 65537 (0x10001)
        X509v3 extensions:
            X509v3 Basic Constraints: 
                CA:FALSE
            Netscape Cert Type: 
                SSL Server
            Netscape Comment: 
                OpenSSL Generated Server Certificate
            X509v3 Subject Key Identifier: 
                38:5A:77:6F:17:EE:1E:55:85:F6:01:E8:5F:06:BF:8A:1C:B6:86:D1
            X509v3 Authority Key Identifier: 
                keyid:B8:F7:0F:30:EC:A9:38:18:62:AE:BA:DE:8C:66:62:A6:1B:FF:83:DF
                DirName:/C=US/ST=Washington/L=Seattle/O=Example.com/OU=Licensing/CN=example.com/emailAddress=licensing@example.com
                serial:E2:3B:18:82:30:BB:75:EC

            X509v3 Extended Key Usage: 
                TLS Web Server Authentication
            X509v3 Key Usage: 
                Digital Signature, Key Encipherment
    Signature Algorithm: sha256WithRSAEncryption
         0e:01:47:ea:1c:70:65:79:9c:83:3c:44:27:91:34:5e:f2:15:
         10:3c:5c:d4:fb:74:32:8d:e9:f0:20:e7:96:5b:5a:9c:c5:ff:
         f7:c2:6e:b0:73:ec:32:dc:e5:b1:2f:13:fb:6c:a8:cd:ef:d0:
         07:62:e1:51:d9:70:bf:63:bb:53:32:74:43:04:dd:a1:a2:71:
         b2:5e:9d:3f:2d:8c:d7:25:d9:01:24:18:5c:ae:d2:c9:ea:53:
         99:8a:81:b9:ea:31:bb:ba:71:70:15:06:b1:3a:90:b2:ff:31:
         8d:78:ae:a7:13:26:f5:f5:c0:ec:5b:95:f5:12:4e:bc:a1:c3:
         e5:3f:d1:73:30:7d:a6:a7:db:3a:0d:d1:9f:c7:35:18:5c:dc:
         ce:d5:ef:07:e1:29:dd:55:f7:7b:58:39:15:05:8f:84:89:7a:
         58:5f:67:e3:8a:50:51:e5:5d:99:6d:ba:5d:6a:5f:f8:6d:53:
         bd:b0:c8:de:51:8a:63:58:b0:e8:68:c8:9d:3b:1a:fb:17:d1:
         af:08:ba:eb:c6:13:7e:51:6e:52:35:f6:0b:8f:1c:3e:21:c5:
         42:b6:34:d5:b9:03:d0:68:05:e3:7c:71:d2:4e:90:9a:c5:34:
         84:59:42:45:21:28:74:45:5c:a5:6a:08:c0:60:a4:d2:d4:23:
         f6:8f:7a:10
-----BEGIN CERTIFICATE-----
MIIFCzCCA/OgAwIBAgIBAjANBgkqhkiG9w0BAQsFADCBmjELMAkGA1UEBhMCVVMx
EzARBgNVBAgMCldhc2hpbmd0b24xEDAOBgNVBAcMB1NlYXR0bGUxFDASBgNVBAoM
C0V4YW1wbGUuY29tMRIwEAYDVQQLDAlMaWNlbnNpbmcxFDASBgNVBAMMC2V4YW1w
bGUuY29tMSQwIgYJKoZIhvcNAQkBFhVsaWNlbnNpbmdAZXhhbXBsZS5jb20wHhcN
MTUwNTE1MjEwMTM3WhcNMjUwNTEyMjEwMTM3WjCBiDELMAkGA1UEBhMCVVMxEzAR
BgNVBAgMCldhc2hpbmd0b24xFDASBgNVBAoMC0V4YW1wbGUuY29tMRMwEQYDVQQL
DApQcm9kdWN0aW9uMRIwEAYDVQQDDAlsb2NhbGhvc3QxJTAjBgkqhkiG9w0BCQEW
FnByb2R1Y3Rpb25AZXhhbXBsZS5jb20wggEiMA0GCSqGSIb3DQEBAQUAA4IBDwAw
ggEKAoIBAQDW8A4F/SwOIoYFQT0uXr490QBYif2RDuIKjEcUsEhqz09KLuN15FyK
GC8aQZZhdKXMkAWFLGWjesZfziNm1VABM4jcG9oknrhJVrZc8ttdJu5M0tkCfzf+
hOJSSYwnK/d18GKL3I9eZmIb1b9zE9oOt4JZqnCcs4fzK6f+sluHFb4eagWOOj6q
DGPsjKWFxzzcNR7W6QiFqpvLor1vEyUbs2z4+Hm/VHAJ4nAj1HHLzwRovih88lDI
zB04gE27fEtxwmeMVwuMntBNJfB2j7gfGM6WAOzMCYO6OTsQ3omqCC5p5BYKZh/k
B/nuqXF6kV7NvfEr6CcomcsjxSTscSHFAgMBAAGjggFqMIIBZjAJBgNVHRMEAjAA
MBEGCWCGSAGG+EIBAQQEAwIGQDAzBglghkgBhvhCAQ0EJhYkT3BlblNTTCBHZW5l
cmF0ZWQgU2VydmVyIENlcnRpZmljYXRlMB0GA1UdDgQWBBQ4WndvF+4eVYX2Aehf
Br+KHLaG0TCBzwYDVR0jBIHHMIHEgBS49w8w7Kk4GGKuut6MZmKmG/+D36GBoKSB
nTCBmjELMAkGA1UEBhMCVVMxEzARBgNVBAgMCldhc2hpbmd0b24xEDAOBgNVBAcM
B1NlYXR0bGUxFDASBgNVBAoMC0V4YW1wbGUuY29tMRIwEAYDVQQLDAlMaWNlbnNp
bmcxFDASBgNVBAMMC2V4YW1wbGUuY29tMSQwIgYJKoZIhvcNAQkBFhVsaWNlbnNp
bmdAZXhhbXBsZS5jb22CCQDiOxiCMLt17DATBgNVHSUEDDAKBggrBgEFBQcDATAL
BgNVHQ8EBAMCBaAwDQYJKoZIhvcNAQELBQADggEBAA4BR+occGV5nIM8RCeRNF7y
FRA8XNT7dDKN6fAg55ZbWpzF//fCbrBz7DLc5bEvE/tsqM3v0Adi4VHZcL9ju1My
dEME3aGicbJenT8tjNcl2QEkGFyu0snqU5mKgbnqMbu6cXAVBrE6kLL/MY14rqcT
JvX1wOxblfUSTryhw+U/0XMwfaan2zoN0Z/HNRhc3M7V7wfhKd1V93tYORUFj4SJ
elhfZ+OKUFHlXZltul1qX/htU72wyN5RimNYsOhoyJ07GvsX0a8IuuvGE35RblI1
9guPHD4hxUK2NNW5A9BoBeN8cdJOkJrFNIRZQkUhKHRFXKVqCMBgpNLUI/aPehA=
-----END CERTIFICATE-----
